target datalayout = "e-m:e-p270:32:32-p271:32:32-p272:64:64-i64:64-i128:128-f80:128-n8:16:32:64-S128"
target triple = "x86_64-pc-linux-gnu"

%struct.AVProbeData = type { ptr, ptr, i32, ptr }

@.str = private unnamed_addr constant [4 x i8] c"nsv\00", align 1
@.str.2 = private unnamed_addr constant [5 x i8] c"NSVs\00", align 1

; Function Attrs: nounwind uwtable
define internal i32 @nsv_probe(ptr noundef %0) #0 {
  %2 = alloca i32, align 4
  %3 = alloca ptr, align 8
  %4 = alloca i32, align 4
  %5 = alloca i32, align 4
  %6 = alloca i32, align 4
  %7 = alloca i32, align 4
  %8 = alloca i32, align 4
  %9 = alloca i32, align 4
  store ptr %0, ptr %3, align 8, !tbaa !4
  call void @llvm.lifetime.start.p0(i64 4, ptr %4) #8
  call void @llvm.lifetime.start.p0(i64 4, ptr %5) #8
  store i32 0, ptr %5, align 4, !tbaa !9
  %10 = load ptr, ptr %3, align 8, !tbaa !4
  %11 = getelementptr inbounds nuw %struct.AVProbeData, ptr %10, i32 0, i32 1
  %12 = load ptr, ptr %11, align 8, !tbaa !11
  %13 = getelementptr inbounds i8, ptr %12, i64 0
  %14 = load i8, ptr %13, align 1, !tbaa !14
  %15 = zext i8 %14 to i32
  %16 = icmp eq i32 %15, 78
  br i1 %16, label %17, label %50

17:                                               ; preds = %1
  %18 = load ptr, ptr %3, align 8, !tbaa !4
  %19 = getelementptr inbounds nuw %struct.AVProbeData, ptr %18, i32 0, i32 1
  %20 = load ptr, ptr %19, align 8, !tbaa !11
  %21 = getelementptr inbounds i8, ptr %20, i64 1
  %22 = load i8, ptr %21, align 1, !tbaa !14
  %23 = zext i8 %22 to i32
  %24 = icmp eq i32 %23, 83
  br i1 %24, label %25, label %50

25:                                               ; preds = %17
  %26 = load ptr, ptr %3, align 8, !tbaa !4
  %27 = getelementptr inbounds nuw %struct.AVProbeData, ptr %26, i32 0, i32 1
  %28 = load ptr, ptr %27, align 8, !tbaa !11
  %29 = getelementptr inbounds i8, ptr %28, i64 2
  %30 = load i8, ptr %29, align 1, !tbaa !14
  %31 = zext i8 %30 to i32
  %32 = icmp eq i32 %31, 86
  br i1 %32, label %33, label %50

33:                                               ; preds = %25
  %34 = load ptr, ptr %3, align 8, !tbaa !4
  %35 = getelementptr inbounds nuw %struct.AVProbeData, ptr %34, i32 0, i32 1
  %36 = load ptr, ptr %35, align 8, !tbaa !11
  %37 = getelementptr inbounds i8, ptr %36, i64 3
  %38 = load i8, ptr %37, align 1, !tbaa !14
  %39 = zext i8 %38 to i32
  %40 = icmp eq i32 %39, 102
  br i1 %40, label %49, label %41

41:                                               ; preds = %33
  %42 = load ptr, ptr %3, align 8, !tbaa !4
  %43 = getelementptr inbounds nuw %struct.AVProbeData, ptr %42, i32 0, i32 1
  %44 = load ptr, ptr %43, align 8, !tbaa !11
  %45 = getelementptr inbounds i8, ptr %44, i64 3
  %46 = load i8, ptr %45, align 1, !tbaa !14
  %47 = zext i8 %46 to i32
  %48 = icmp eq i32 %47, 115
  br i1 %48, label %49, label %50

49:                                               ; preds = %41, %33
  store i32 100, ptr %2, align 4
  store i32 1, ptr %6, align 4
  br label %154

50:                                               ; preds = %41, %25, %17, %1
  store i32 1, ptr %4, align 4, !tbaa !9
  br label %51

51:                                               ; preds = %142, %50
  %52 = load i32, ptr %4, align 4, !tbaa !9
  %53 = load ptr, ptr %3, align 8, !tbaa !4
  %54 = getelementptr inbounds nuw %struct.AVProbeData, ptr %53, i32 0, i32 2
  %55 = load i32, ptr %54, align 8, !tbaa !15
  %56 = sub nsw i32 %55, 3
  %57 = icmp slt i32 %52, %56
  br i1 %57, label %58, label %145

58:                                               ; preds = %51
  %59 = load ptr, ptr %3, align 8, !tbaa !4
  %60 = getelementptr inbounds nuw %struct.AVProbeData, ptr %59, i32 0, i32 1
  %61 = load ptr, ptr %60, align 8, !tbaa !11
  %62 = load i32, ptr %4, align 4, !tbaa !9
  %63 = sext i32 %62 to i64
  %64 = getelementptr inbounds i8, ptr %61, i64 %63
  %65 = load i32, ptr %64, align 1, !tbaa !14
  %66 = load i32, ptr @.str.2, align 1, !tbaa !14
  %67 = icmp eq i32 %65, %66
  br i1 %67, label %68, label %141

68:                                               ; preds = %58
  call void @llvm.lifetime.start.p0(i64 4, ptr %7) #8
  %69 = load ptr, ptr %3, align 8, !tbaa !4
  %70 = getelementptr inbounds nuw %struct.AVProbeData, ptr %69, i32 0, i32 1
  %71 = load ptr, ptr %70, align 8, !tbaa !11
  %72 = load i32, ptr %4, align 4, !tbaa !9
  %73 = sext i32 %72 to i64
  %74 = getelementptr inbounds i8, ptr %71, i64 %73
  %75 = getelementptr inbounds i8, ptr %74, i64 19
  %76 = getelementptr inbounds i8, ptr %75, i64 2
  %77 = load i8, ptr %76, align 1, !tbaa !14
  %78 = zext i8 %77 to i32
  %79 = shl i32 %78, 16
  %80 = load ptr, ptr %3, align 8, !tbaa !4
  %81 = getelementptr inbounds nuw %struct.AVProbeData, ptr %80, i32 0, i32 1
  %82 = load ptr, ptr %81, align 8, !tbaa !11
  %83 = load i32, ptr %4, align 4, !tbaa !9
  %84 = sext i32 %83 to i64
  %85 = getelementptr inbounds i8, ptr %82, i64 %84
  %86 = getelementptr inbounds i8, ptr %85, i64 19
  %87 = getelementptr inbounds i8, ptr %86, i64 1
  %88 = load i8, ptr %87, align 1, !tbaa !14
  %89 = zext i8 %88 to i32
  %90 = shl i32 %89, 8
  %91 = or i32 %79, %90
  %92 = load ptr, ptr %3, align 8, !tbaa !4
  %93 = getelementptr inbounds nuw %struct.AVProbeData, ptr %92, i32 0, i32 1
  %94 = load ptr, ptr %93, align 8, !tbaa !11
  %95 = load i32, ptr %4, align 4, !tbaa !9
  %96 = sext i32 %95 to i64
  %97 = getelementptr inbounds i8, ptr %94, i64 %96
  %98 = getelementptr inbounds i8, ptr %97, i64 19
  %99 = getelementptr inbounds i8, ptr %98, i64 0
  %100 = load i8, ptr %99, align 1, !tbaa !14
  %101 = zext i8 %100 to i32
  %102 = or i32 %91, %101
  %103 = ashr i32 %102, 4
  store i32 %103, ptr %7, align 4, !tbaa !9
  call void @llvm.lifetime.start.p0(i64 4, ptr %8) #8
  %104 = load ptr, ptr %3, align 8, !tbaa !4
  %105 = getelementptr inbounds nuw %struct.AVProbeData, ptr %104, i32 0, i32 1
  %106 = load ptr, ptr %105, align 8, !tbaa !11
  %107 = load i32, ptr %4, align 4, !tbaa !9
  %108 = sext i32 %107 to i64
  %109 = getelementptr inbounds i8, ptr %106, i64 %108
  %110 = getelementptr inbounds i8, ptr %109, i64 22
  %111 = load i16, ptr %110, align 1, !tbaa !14
  %112 = zext i16 %111 to i32
  store i32 %112, ptr %8, align 4, !tbaa !9
  call void @llvm.lifetime.start.p0(i64 4, ptr %9) #8
  %113 = load i32, ptr %4, align 4, !tbaa !9
  %114 = add nsw i32 %113, 23
  %115 = load i32, ptr %8, align 4, !tbaa !9
  %116 = add nsw i32 %114, %115
  %117 = load i32, ptr %7, align 4, !tbaa !9
  %118 = add nsw i32 %116, %117
  %119 = add nsw i32 %118, 1
  store i32 %119, ptr %9, align 4, !tbaa !9
  %120 = load i32, ptr %9, align 4, !tbaa !9
  %121 = load ptr, ptr %3, align 8, !tbaa !4
  %122 = getelementptr inbounds nuw %struct.AVProbeData, ptr %121, i32 0, i32 2
  %123 = load i32, ptr %122, align 8, !tbaa !15
  %124 = sub nsw i32 %123, 2
  %125 = icmp sle i32 %120, %124
  br i1 %125, label %126, label %137

126:                                              ; preds = %68
  %127 = load ptr, ptr %3, align 8, !tbaa !4
  %128 = getelementptr inbounds nuw %struct.AVProbeData, ptr %127, i32 0, i32 1
  %129 = load ptr, ptr %128, align 8, !tbaa !11
  %130 = load i32, ptr %9, align 4, !tbaa !9
  %131 = sext i32 %130 to i64
  %132 = getelementptr inbounds i8, ptr %129, i64 %131
  %133 = load i16, ptr %132, align 1, !tbaa !14
  %134 = zext i16 %133 to i32
  %135 = icmp eq i32 %134, 48879
  br i1 %135, label %136, label %137

136:                                              ; preds = %126
  store i32 80, ptr %2, align 4
  store i32 1, ptr %6, align 4
  br label %138

137:                                              ; preds = %126, %68
  store i32 20, ptr %5, align 4, !tbaa !9
  store i32 0, ptr %6, align 4
  br label %138

138:                                              ; preds = %137, %136
  call void @llvm.lifetime.end.p0(i64 4, ptr %9) #8
  call void @llvm.lifetime.end.p0(i64 4, ptr %8) #8
  call void @llvm.lifetime.end.p0(i64 4, ptr %7) #8
  %139 = load i32, ptr %6, align 4
  switch i32 %139, label %154 [
    i32 0, label %140
  ]

140:                                              ; preds = %138
  br label %141

141:                                              ; preds = %140, %58
  br label %142

142:                                              ; preds = %141
  %143 = load i32, ptr %4, align 4, !tbaa !9
  %144 = add nsw i32 %143, 1
  store i32 %144, ptr %4, align 4, !tbaa !9
  br label %51, !llvm.loop !16

145:                                              ; preds = %51
  %146 = load ptr, ptr %3, align 8, !tbaa !4
  %147 = getelementptr inbounds nuw %struct.AVProbeData, ptr %146, i32 0, i32 0
  %148 = load ptr, ptr %147, align 8, !tbaa !18
  %149 = call i32 @av_match_ext(ptr noundef %148, ptr noundef @.str)
  %150 = icmp ne i32 %149, 0
  br i1 %150, label %151, label %152

151:                                              ; preds = %145
  store i32 50, ptr %2, align 4
  store i32 1, ptr %6, align 4
  br label %154

152:                                              ; preds = %145
  %153 = load i32, ptr %5, align 4, !tbaa !9
  store i32 %153, ptr %2, align 4
  store i32 1, ptr %6, align 4
  br label %154

154:                                              ; preds = %152, %151, %138, %49
  call void @llvm.lifetime.end.p0(i64 4, ptr %5) #8
  call void @llvm.lifetime.end.p0(i64 4, ptr %4) #8
  %155 = load i32, ptr %2, align 4
  ret i32 %155
}