; Function Attrs: nounwind uwtable
define internal range(i32 0, 101) i32 @nsv_probe(ptr noundef readonly captures(none) %0) #0 {
  %2 = getelementptr inbounds nuw i8, ptr %0, i64 8
  %3 = load ptr, ptr %2, align 8, !tbaa !4
  %4 = load i8, ptr %3, align 1, !tbaa !11
  %5 = icmp eq i8 %4, 78
  br i1 %5, label %6, label %17

6:                                                ; preds = %1
  %7 = getelementptr inbounds nuw i8, ptr %3, i64 1
  %8 = load i8, ptr %7, align 1, !tbaa !11
  %9 = icmp eq i8 %8, 83
  br i1 %9, label %10, label %17

10:                                               ; preds = %6
  %11 = getelementptr inbounds nuw i8, ptr %3, i64 2
  %12 = load i8, ptr %11, align 1, !tbaa !11
  %13 = icmp eq i8 %12, 86
  br i1 %13, label %14, label %17

14:                                               ; preds = %10
  %15 = getelementptr inbounds nuw i8, ptr %3, i64 3
  %16 = load i8, ptr %15, align 1, !tbaa !11
  switch i8 %16, label %17 [
    i8 102, label %.loopexit
    i8 115, label %.loopexit
  ]

17:                                               ; preds = %14, %10, %6, %1
  %18 = getelementptr inbounds nuw i8, ptr %0, i64 16
  %19 = load i32, ptr %18, align 8, !tbaa !12
  %invariant.gep = getelementptr inbounds nuw i8, ptr %3, i64 1
  %20 = icmp sgt i32 %19, 4
  br i1 %20, label %.lr.ph, label %._crit_edge

.lr.ph:                                           ; preds = %17
  %21 = add nsw i32 %19, -3
  %22 = add nsw i32 %19, -2
  %wide.trip.count = zext nneg i32 %21 to i64
  br label %23

23:                                               ; preds = %.lr.ph, %.thread
  %indvars.iv = phi i64 [ 1, %.lr.ph ], [ %indvars.iv.next, %.thread ]
  %.02939 = phi i32 [ 0, %.lr.ph ], [ %.231, %.thread ]
  %24 = getelementptr inbounds nuw i8, ptr %3, i64 %indvars.iv
  %25 = load i32, ptr %24, align 1, !tbaa !11
  %26 = icmp eq i32 %25, 1935037262
  br i1 %26, label %27, label %.thread

27:                                               ; preds = %23
  %28 = getelementptr inbounds nuw i8, ptr %24, i64 19
  %29 = getelementptr i8, ptr %24, i64 20
  %30 = load i16, ptr %29, align 1
  %31 = zext i16 %30 to i32
  %32 = shl nuw nsw i32 %31, 8
  %33 = load i8, ptr %28, align 1, !tbaa !11
  %34 = zext i8 %33 to i32
  %35 = or disjoint i32 %32, %34
  %36 = lshr i32 %35, 4
  %37 = getelementptr inbounds nuw i8, ptr %24, i64 22
  %38 = load i16, ptr %37, align 1, !tbaa !11
  %39 = zext i16 %38 to i32
  %40 = trunc i64 %indvars.iv to i32
  %41 = add i32 %40, 23
  %42 = add nuw nsw i32 %41, %39
  %43 = add nuw nsw i32 %42, %36
  %.not35.not = icmp slt i32 %43, %22
  br i1 %.not35.not, label %44, label %.thread

44:                                               ; preds = %27
  %45 = zext nneg i32 %43 to i64
  %gep = getelementptr inbounds nuw i8, ptr %invariant.gep, i64 %45
  %46 = load i16, ptr %gep, align 1, !tbaa !11
  %47 = icmp eq i16 %46, -16657
  br i1 %47, label %.loopexit, label %.thread

.thread:                                          ; preds = %44, %27, %23
  %.231 = phi i32 [ %.02939, %23 ], [ 20, %27 ], [ 20, %44 ]
  %indvars.iv.next = add nuw nsw i64 %indvars.iv, 1
  %exitcond.not = icmp eq i64 %indvars.iv.next, %wide.trip.count
  br i1 %exitcond.not, label %._crit_edge, label %23, !llvm.loop !13

._crit_edge:                                      ; preds = %.thread, %17
  %.029.lcssa = phi i32 [ 0, %17 ], [ %.231, %.thread ]
  %48 = load ptr, ptr %0, align 8, !tbaa !15
  %49 = tail call i32 @av_match_ext(ptr noundef %48, ptr noundef nonnull @.str) #8
  %.not = icmp eq i32 %49, 0
  %.029. = select i1 %.not, i32 %.029.lcssa, i32 50
  br label %.loopexit

.loopexit:                                        ; preds = %44, %._crit_edge, %14, %14
  %.0 = phi i32 [ 100, %14 ], [ 100, %14 ], [ %.029., %._crit_edge ], [ 80, %44 ]
  ret i32 %.0
}